target datalayout = "e-m:e-p270:32:32-p271:32:32-p272:64:64-i64:64-i128:128-f80:128-n8:16:32:64-S128"
target triple = "x86_64-pc-linux-gnu"

%struct.archive_write = type { %struct.archive, i32, i64, i64, ptr, i64, ptr, ptr, ptr, ptr, ptr, i32, i32, ptr, ptr, ptr, ptr, ptr, ptr, ptr, ptr, ptr, ptr, ptr, ptr, ptr, ptr }
%struct.archive = type { i32, i32, ptr, i32, ptr, i32, i32, ptr, %struct.archive_string, ptr, i32, i32, ptr, ptr, i64, i64, i64, i8, i64 }
%struct.archive_string = type { ptr, i64, i64 }
%struct.iso9660 = type { i64, i32, ptr, ptr, %struct.archive_string, i64, i32, %struct.archive_string, %struct.archive_string, ptr, ptr, %struct.anon, %struct.anon.0, %struct.archive_rb_tree, %struct.vdd, %struct.vdd, i32, i32, i32, %struct.archive_string, %struct.archive_string, %struct.archive_string, %struct.archive_string, %struct.archive_string, %struct.archive_string, %struct.archive_string, i32, %struct.anon.1, ptr, i32, [65536 x i8], i64, i32, i64, i64, i64, %struct.anon.2, %struct.iso_option }
%struct.anon = type { ptr, ptr }
%struct.anon.0 = type { ptr, ptr }
%struct.archive_rb_tree = type { ptr, ptr }
%struct.vdd = type { ptr, i32, ptr, i32, i32, i32, i32, i32, i32 }
%struct.anon.1 = type { i8, [64 x i8], i32, ptr, i64, i32, i32, i64, i64, %struct.z_stream_s, i32, i64, i32 }
%struct.z_stream_s = type { ptr, i32, i64, ptr, i32, i64, ptr, ptr, ptr, ptr, ptr, i32, i64, i64 }
%struct.anon.2 = type { %struct.archive_string, ptr, %struct.archive_string, ptr, i8, %struct.archive_string, i8, i8, i16, i16 }
%struct.iso_option = type { i32 }
%struct.isofile = type { ptr, ptr, ptr, ptr, ptr, %struct.archive_string, %struct.archive_string, %struct.archive_string, %struct.archive_string, i32, %struct.content, ptr, i32, i32, %struct.anon.7 }
%struct.content = type { i64, i64, i32, i32, ptr }
%struct.anon.7 = type { i8, i8, i32 }

; Function Attrs: nounwind uwtable
define internal i64 @iso9660_write_data(ptr noundef %0, ptr noundef %1, i64 noundef %2) #0 {
  %4 = alloca i64, align 8
  %5 = alloca ptr, align 8
  %6 = alloca ptr, align 8
  %7 = alloca i64, align 8
  %8 = alloca ptr, align 8
  %9 = alloca i64, align 8
  %10 = alloca i32, align 4
  store ptr %0, ptr %5, align 8, !tbaa !9
  store ptr %1, ptr %6, align 8, !tbaa !153
  store i64 %2, ptr %7, align 8, !tbaa !154
  call void @llvm.lifetime.start.p0(i64 8, ptr %8) #13
  %11 = load ptr, ptr %5, align 8, !tbaa !9
  %12 = getelementptr inbounds nuw %struct.archive_write, ptr %11, i32 0, i32 15
  %13 = load ptr, ptr %12, align 8, !tbaa !120
  store ptr %13, ptr %8, align 8, !tbaa !22
  call void @llvm.lifetime.start.p0(i64 8, ptr %9) #13
  %14 = load ptr, ptr %8, align 8, !tbaa !22
  %15 = getelementptr inbounds nuw %struct.iso9660, ptr %14, i32 0, i32 2
  %16 = load ptr, ptr %15, align 8, !tbaa !43
  %17 = icmp eq ptr %16, null
  br i1 %17, label %18, label %19

18:                                               ; preds = %3
  store i64 0, ptr %4, align 8
  store i32 1, ptr %10, align 4
  br label %57

19:                                               ; preds = %3
  %20 = load ptr, ptr %8, align 8, !tbaa !22
  %21 = getelementptr inbounds nuw %struct.iso9660, ptr %20, i32 0, i32 2
  %22 = load ptr, ptr %21, align 8, !tbaa !43
  %23 = getelementptr inbounds nuw %struct.isofile, ptr %22, i32 0, i32 4
  %24 = load ptr, ptr %23, align 8, !tbaa !135
  %25 = call i32 @archive_entry_filetype(ptr noundef %24)
  %26 = icmp ne i32 %25, 32768
  br i1 %26, label %27, label %28

27:                                               ; preds = %19
  store i64 0, ptr %4, align 8
  store i32 1, ptr %10, align 4
  br label %57

28:                                               ; preds = %19
  %29 = load i64, ptr %7, align 8, !tbaa !154
  %30 = load ptr, ptr %8, align 8, !tbaa !22
  %31 = getelementptr inbounds nuw %struct.iso9660, ptr %30, i32 0, i32 5
  %32 = load i64, ptr %31, align 8, !tbaa !145
  %33 = icmp ugt i64 %29, %32
  br i1 %33, label %34, label %38

34:                                               ; preds = %28
  %35 = load ptr, ptr %8, align 8, !tbaa !22
  %36 = getelementptr inbounds nuw %struct.iso9660, ptr %35, i32 0, i32 5
  %37 = load i64, ptr %36, align 8, !tbaa !145
  store i64 %37, ptr %7, align 8, !tbaa !154
  br label %38

38:                                               ; preds = %34, %28
  %39 = load i64, ptr %7, align 8, !tbaa !154
  %40 = icmp eq i64 %39, 0
  br i1 %40, label %41, label %42

41:                                               ; preds = %38
  store i64 0, ptr %4, align 8
  store i32 1, ptr %10, align 4
  br label %57

42:                                               ; preds = %38
  %43 = load ptr, ptr %5, align 8, !tbaa !9
  %44 = load ptr, ptr %6, align 8, !tbaa !153
  %45 = load i64, ptr %7, align 8, !tbaa !154
  %46 = call i64 @write_iso9660_data(ptr noundef %43, ptr noundef %44, i64 noundef %45)
  store i64 %46, ptr %9, align 8, !tbaa !154
  %47 = load i64, ptr %9, align 8, !tbaa !154
  %48 = icmp sgt i64 %47, 0
  br i1 %48, label %49, label %55

49:                                               ; preds = %42
  %50 = load i64, ptr %9, align 8, !tbaa !154
  %51 = load ptr, ptr %8, align 8, !tbaa !22
  %52 = getelementptr inbounds nuw %struct.iso9660, ptr %51, i32 0, i32 5
  %53 = load i64, ptr %52, align 8, !tbaa !145
  %54 = sub i64 %53, %50
  store i64 %54, ptr %52, align 8, !tbaa !145
  br label %55

55:                                               ; preds = %49, %42
  %56 = load i64, ptr %9, align 8, !tbaa !154
  store i64 %56, ptr %4, align 8
  store i32 1, ptr %10, align 4
  br label %57

57:                                               ; preds = %55, %41, %27, %18
  call void @llvm.lifetime.end.p0(i64 8, ptr %9) #13
  call void @llvm.lifetime.end.p0(i64 8, ptr %8) #13
  %58 = load i64, ptr %4, align 8
  ret i64 %58
}