; Function Attrs: nounwind uwtable
define internal noundef i64 @iso9660_write_data(ptr noundef %0, ptr noundef %1, i64 noundef %2) #0 {
  %4 = getelementptr inbounds nuw i8, ptr %0, i64 248
  %5 = load ptr, ptr %4, align 8, !tbaa !69
  %6 = getelementptr inbounds nuw i8, ptr %5, i64 16
  %7 = load ptr, ptr %6, align 8, !tbaa !36
  %8 = icmp eq ptr %7, null
  br i1 %8, label %23, label %9

9:                                                ; preds = %3
  %10 = getelementptr inbounds nuw i8, ptr %7, i64 32
  %11 = load ptr, ptr %10, align 8, !tbaa !78
  %12 = tail call i32 @archive_entry_filetype(ptr noundef %11) #23
  %.not = icmp eq i32 %12, 32768
  br i1 %.not, label %13, label %23

13:                                               ; preds = %9
  %14 = getelementptr inbounds nuw i8, ptr %5, i64 56
  %15 = load i64, ptr %14, align 8, !tbaa !102
  %spec.select = tail call i64 @llvm.umin.i64(i64 %2, i64 %15)
  %16 = icmp eq i64 %spec.select, 0
  br i1 %16, label %23, label %17

17:                                               ; preds = %13
  %18 = tail call fastcc i64 @write_iso9660_data(ptr noundef nonnull %0, ptr noundef %1, i64 noundef %spec.select)
  %19 = icmp sgt i64 %18, 0
  br i1 %19, label %20, label %23

20:                                               ; preds = %17
  %21 = load i64, ptr %14, align 8, !tbaa !102
  %22 = sub i64 %21, %18
  store i64 %22, ptr %14, align 8, !tbaa !102
  br label %23

23:                                               ; preds = %17, %20, %13, %9, %3
  %.0 = phi i64 [ 0, %3 ], [ 0, %9 ], [ 0, %13 ], [ %18, %20 ], [ %18, %17 ]
  ret i64 %.0
}